target datalayout = "e-m:e-p270:32:32-p271:32:32-p272:64:64-i64:64-i128:128-f80:128-n8:16:32:64-S128"
target triple = "x86_64-pc-linux-gnu"

%class.Register = type { i32 }
%class.XMMRegister = type { i32 }
%class.Address = type { %class.Register, %class.Register, %class.XMMRegister, i32, i32, i8, [3 x i8], %class.RelocationHolder }
%class.RelocationHolder = type { [40 x i8] }
%class.Label = type <{ i32, [4 x i32], i32, ptr, i8, [7 x i8] }>
%class.LIR_Opr = type { i64 }
%class.LIR_Assembler = type { ptr, ptr, ptr, ptr, ptr, ptr, i32, i32, %class.Label }
%class.CodeStub = type { ptr, %class.Label, %class.Label }
%class.LIR_Address = type <{ %class.LIR_OprPtr, %class.LIR_Opr, %class.LIR_Opr, i32, [4 x i8], i64, i8, [7 x i8] }>
%class.LIR_OprPtr = type { ptr }

; Function Attrs: mustprogress nounwind uwtable
define linkonce_odr hidden noundef i64 @_ZNK7LIR_Opr5valueEv(ptr noundef nonnull align 8 dereferenceable(8) %0) #1 comdat align 2 {
  %2 = alloca ptr, align 8
  store ptr %0, ptr %2, align 8
  %3 = load ptr, ptr %2, align 8
  %4 = getelementptr inbounds %class.LIR_Opr, ptr %3, i32 0, i32 0
  %5 = load i64, ptr %4, align 8
  ret i64 %5
}

; Function Attrs: mustprogress nounwind uwtable
define linkonce_odr hidden noundef zeroext i1 @_ZNK7LIR_Opr16check_value_maskEll(ptr noundef nonnull align 8 dereferenceable(8) %0, i64 noundef %1, i64 noundef %2) #1 comdat align 2 {
  %4 = alloca ptr, align 8
  %5 = alloca i64, align 8
  %6 = alloca i64, align 8
  store ptr %0, ptr %4, align 8
  store i64 %1, ptr %5, align 8
  store i64 %2, ptr %6, align 8
  %7 = load ptr, ptr %4, align 8
  %8 = call noundef i64 @_ZNK7LIR_Opr5valueEv(ptr noundef nonnull align 8 dereferenceable(8) %7)
  %9 = load i64, ptr %5, align 8
  %10 = and i64 %8, %9
  %11 = load i64, ptr %6, align 8
  %12 = icmp eq i64 %10, %11
  ret i1 %12
}

; Function Attrs: mustprogress nounwind uwtable
define linkonce_odr hidden void @_ZNK7LIR_Opr13validate_typeEv(ptr noundef nonnull align 8 dereferenceable(8) %0) #1 comdat align 2 {
  %2 = alloca ptr, align 8
  store ptr %0, ptr %2, align 8
  ret void
}

; Function Attrs: mustprogress nounwind uwtable
define linkonce_odr hidden noundef zeroext i1 @_ZNK7LIR_Opr13is_double_cpuEv(ptr noundef nonnull align 8 dereferenceable(8) %0) #1 comdat align 2 {
  %2 = alloca ptr, align 8
  store ptr %0, ptr %2, align 8
  %3 = load ptr, ptr %2, align 8
  call void @_ZNK7LIR_Opr13validate_typeEv(ptr noundef nonnull align 8 dereferenceable(8) %3)
  %4 = call noundef zeroext i1 @_ZNK7LIR_Opr16check_value_maskEll(ptr noundef nonnull align 8 dereferenceable(8) %3, i64 noundef 391, i64 noundef 131)
  ret i1 %4
}

; Function Attrs: mustprogress nounwind uwtable
define linkonce_odr hidden noundef ptr @_ZN8CodeStub12continuationEv(ptr noundef nonnull align 8 dereferenceable(88) %0) #1 comdat align 2 {
  %2 = alloca ptr, align 8
  store ptr %0, ptr %2, align 8
  %3 = load ptr, ptr %2, align 8
  %4 = getelementptr inbounds %class.CodeStub, ptr %3, i32 0, i32 2
  ret ptr %4
}

; Function Attrs: mustprogress nounwind uwtable
define linkonce_odr hidden noundef ptr @_ZN8CodeStub5entryEv(ptr noundef nonnull align 8 dereferenceable(88) %0) #1 comdat align 2 {
  %2 = alloca ptr, align 8
  store ptr %0, ptr %2, align 8
  %3 = load ptr, ptr %2, align 8
  %4 = getelementptr inbounds %class.CodeStub, ptr %3, i32 0, i32 1
  ret ptr %4
}

; Function Attrs: mustprogress nounwind uwtable
define linkonce_odr hidden noundef ptr @_ZNK13LIR_Assembler4masmEv(ptr noundef nonnull align 8 dereferenceable(96) %0) #1 comdat align 2 {
  %2 = alloca ptr, align 8
  store ptr %0, ptr %2, align 8
  %3 = load ptr, ptr %2, align 8
  %4 = getelementptr inbounds %class.LIR_Assembler, ptr %3, i32 0, i32 0
  %5 = load ptr, ptr %4, align 8
  ret ptr %5
}

; Function Attrs: mustprogress nounwind uwtable
define linkonce_odr hidden i32 @_ZN7LIR_Opr19as_pointer_registerEv(ptr noundef nonnull align 8 dereferenceable(8) %0) #1 comdat align 2 {
  %2 = alloca %class.Register, align 4
  %3 = alloca ptr, align 8
  store ptr %0, ptr %3, align 8
  %4 = load ptr, ptr %3, align 8
  %5 = call noundef zeroext i1 @_ZNK7LIR_Opr13is_double_cpuEv(ptr noundef nonnull align 8 dereferenceable(8) %4)
  br i1 %5, label %6, label %9

6:                                                ; preds = %1
  %7 = call i32 @_ZNK7LIR_Opr14as_register_loEv(ptr noundef nonnull align 8 dereferenceable(8) %4)
  %8 = getelementptr inbounds %class.Register, ptr %2, i32 0, i32 0
  store i32 %7, ptr %8, align 4
  br label %12

9:                                                ; preds = %1
  %10 = call i32 @_ZNK7LIR_Opr11as_registerEv(ptr noundef nonnull align 8 dereferenceable(8) %4)
  %11 = getelementptr inbounds %class.Register, ptr %2, i32 0, i32 0
  store i32 %10, ptr %11, align 4
  br label %12

12:                                               ; preds = %9, %6
  %13 = getelementptr inbounds %class.Register, ptr %2, i32 0, i32 0
  %14 = load i32, ptr %13, align 4
  ret i32 %14
}

; Function Attrs: mustprogress nounwind uwtable
define linkonce_odr hidden i64 @_ZNK11LIR_Address4baseEv(ptr noundef nonnull align 8 dereferenceable(41) %0) #1 comdat align 2 {
  %2 = alloca %class.LIR_Opr, align 8
  %3 = alloca ptr, align 8
  store ptr %0, ptr %3, align 8
  %4 = load ptr, ptr %3, align 8
  %5 = getelementptr inbounds %class.LIR_Address, ptr %4, i32 0, i32 1
  call void @llvm.memcpy.p0.p0.i64(ptr align 8 %2, ptr align 8 %5, i64 8, i1 false)
  %6 = getelementptr inbounds %class.LIR_Opr, ptr %2, i32 0, i32 0
  %7 = load i64, ptr %6, align 8
  ret i64 %7
}

; Function Attrs: mustprogress nounwind uwtable
define linkonce_odr hidden noundef ptr @_ZN7LIR_OprptEv(ptr noundef nonnull align 8 dereferenceable(8) %0) #1 comdat align 2 {
  %2 = alloca ptr, align 8
  store ptr %0, ptr %2, align 8
  %3 = load ptr, ptr %2, align 8
  ret ptr %3
}

; Function Attrs: mustprogress nounwind uwtable
define hidden void @_ZNK20ZBarrierSetAssembler25generate_c1_store_barrierEP13LIR_AssemblerP11LIR_Address7LIR_OprS4_P19ZStoreBarrierStubC1(ptr noundef nonnull align 8 dereferenceable(56) %0, ptr noundef %1, ptr noundef %2, i64 %3, i64 %4, ptr noundef %5) #1 align 2 {
  %7 = alloca %class.LIR_Opr, align 8
  %8 = alloca %class.LIR_Opr, align 8
  %9 = alloca ptr, align 8
  %10 = alloca ptr, align 8
  %11 = alloca ptr, align 8
  %12 = alloca ptr, align 8
  %13 = alloca %class.Register, align 4
  %14 = alloca %class.Register, align 4
  %15 = alloca %class.Register, align 4
  %16 = alloca %class.LIR_Opr, align 8
  %17 = alloca %class.Address, align 8
  %18 = alloca %class.Register, align 4
  %19 = alloca %class.Register, align 4
  %20 = getelementptr inbounds %class.LIR_Opr, ptr %7, i32 0, i32 0
  store i64 %3, ptr %20, align 8
  %21 = getelementptr inbounds %class.LIR_Opr, ptr %8, i32 0, i32 0
  store i64 %4, ptr %21, align 8
  store ptr %0, ptr %9, align 8
  store ptr %1, ptr %10, align 8
  store ptr %2, ptr %11, align 8
  store ptr %5, ptr %12, align 8
  %22 = load ptr, ptr %9, align 8
  %23 = call noundef ptr @_ZN7LIR_OprptEv(ptr noundef nonnull align 8 dereferenceable(8) %7)
  %24 = call i32 @_ZNK7LIR_Opr11as_registerEv(ptr noundef nonnull align 8 dereferenceable(8) %23)
  %25 = getelementptr inbounds %class.Register, ptr %13, i32 0, i32 0
  store i32 %24, ptr %25, align 4
  %26 = call noundef ptr @_ZN7LIR_OprptEv(ptr noundef nonnull align 8 dereferenceable(8) %8)
  %27 = call i32 @_ZNK7LIR_Opr11as_registerEv(ptr noundef nonnull align 8 dereferenceable(8) %26)
  %28 = getelementptr inbounds %class.Register, ptr %14, i32 0, i32 0
  store i32 %27, ptr %28, align 4
  %29 = load ptr, ptr %11, align 8
  %30 = call i64 @_ZNK11LIR_Address4baseEv(ptr noundef nonnull align 8 dereferenceable(41) %29)
  %31 = getelementptr inbounds %class.LIR_Opr, ptr %16, i32 0, i32 0
  store i64 %30, ptr %31, align 8
  %32 = call noundef ptr @_ZN7LIR_OprptEv(ptr noundef nonnull align 8 dereferenceable(8) %16)
  %33 = call i32 @_ZN7LIR_Opr19as_pointer_registerEv(ptr noundef nonnull align 8 dereferenceable(8) %32)
  %34 = getelementptr inbounds %class.Register, ptr %15, i32 0, i32 0
  store i32 %33, ptr %34, align 4
  %35 = load ptr, ptr %10, align 8
  %36 = call noundef ptr @_ZNK13LIR_Assembler4masmEv(ptr noundef nonnull align 8 dereferenceable(96) %35)
  %37 = load ptr, ptr %10, align 8
  %38 = load ptr, ptr %11, align 8
  call void @_ZN13LIR_Assembler10as_AddressEP11LIR_Address(ptr dead_on_unwind writable sret(%class.Address) align 8 %17, ptr noundef nonnull align 8 dereferenceable(96) %37, ptr noundef %38)
  call void @llvm.memcpy.p0.p0.i64(ptr align 4 %18, ptr align 4 %13, i64 4, i1 false)
  call void @llvm.memcpy.p0.p0.i64(ptr align 4 %19, ptr align 4 %14, i64 4, i1 false)
  %39 = load ptr, ptr %12, align 8
  %40 = call noundef zeroext i1 @_ZNK19ZStoreBarrierStubC19is_atomicEv(ptr noundef nonnull align 8 dereferenceable(136) %39)
  %41 = load ptr, ptr %12, align 8
  %42 = call noundef ptr @_ZN8CodeStub5entryEv(ptr noundef nonnull align 8 dereferenceable(88) %41)
  %43 = load ptr, ptr %12, align 8
  %44 = call noundef ptr @_ZN8CodeStub12continuationEv(ptr noundef nonnull align 8 dereferenceable(88) %43)
  %45 = getelementptr inbounds %class.Register, ptr %18, i32 0, i32 0
  %46 = load i32, ptr %45, align 4
  %47 = getelementptr inbounds %class.Register, ptr %19, i32 0, i32 0
  %48 = load i32, ptr %47, align 4
  call void @_ZNK20ZBarrierSetAssembler18store_barrier_fastEP14MacroAssembler7Address8RegisterS3_bbR5LabelS5_(ptr noundef nonnull align 8 dereferenceable(56) %22, ptr noundef %36, ptr noundef %17, i32 %46, i32 %48, i1 noundef zeroext true, i1 noundef zeroext %40, ptr noundef nonnull align 8 dereferenceable(33) %42, ptr noundef nonnull align 8 dereferenceable(33) %44)
  ret void
}