; Function Attrs: mustprogress nounwind uwtable
define hidden void @_ZNK20ZBarrierSetAssembler25generate_c1_store_barrierEP13LIR_AssemblerP11LIR_Address7LIR_OprS4_P19ZStoreBarrierStubC1(ptr nocapture noundef nonnull readnone align 8 dereferenceable(56) %0, ptr noundef %1, ptr noundef %2, i64 %3, i64 %4, ptr noundef %5) local_unnamed_addr #1 align 2 {
  %7 = alloca %class.LIR_Opr, align 8
  %8 = alloca %class.LIR_Opr, align 8
  %9 = alloca %class.LIR_Opr, align 8
  %10 = alloca %class.Address, align 8
  store i64 %3, ptr %7, align 8
  store i64 %4, ptr %8, align 8
  %11 = call i32 @_ZNK7LIR_Opr11as_registerEv(ptr noundef nonnull align 8 dereferenceable(8) %7) #12
  %12 = call i32 @_ZNK7LIR_Opr11as_registerEv(ptr noundef nonnull align 8 dereferenceable(8) %8) #12
  %13 = getelementptr inbounds i8, ptr %2, i64 8
  %.sroa.0.0.copyload.i = load i64, ptr %13, align 8
  store i64 %.sroa.0.0.copyload.i, ptr %9, align 8
  %14 = and i64 %.sroa.0.0.copyload.i, 391
  %15 = icmp eq i64 %14, 131
  br i1 %15, label %16, label %18

16:                                               ; preds = %6
  %17 = call i32 @_ZNK7LIR_Opr14as_register_loEv(ptr noundef nonnull align 8 dereferenceable(8) %9) #12
  br label %_ZN7LIR_Opr19as_pointer_registerEv.exit

18:                                               ; preds = %6
  %19 = call i32 @_ZNK7LIR_Opr11as_registerEv(ptr noundef nonnull align 8 dereferenceable(8) %9) #12
  br label %_ZN7LIR_Opr19as_pointer_registerEv.exit

_ZN7LIR_Opr19as_pointer_registerEv.exit:          ; preds = %16, %18
  %20 = load ptr, ptr %1, align 8
  call void @_ZN13LIR_Assembler10as_AddressEP11LIR_Address(ptr dead_on_unwind nonnull writable sret(%class.Address) align 8 %10, ptr noundef nonnull align 8 dereferenceable(96) %1, ptr noundef nonnull %2) #12
  %21 = call noundef zeroext i1 @_ZNK19ZStoreBarrierStubC19is_atomicEv(ptr noundef nonnull align 8 dereferenceable(136) %5) #12
  %22 = getelementptr inbounds i8, ptr %5, i64 8
  %23 = getelementptr inbounds i8, ptr %5, i64 48
  call void @_ZNK20ZBarrierSetAssembler18store_barrier_fastEP14MacroAssembler7Address8RegisterS3_bbR5LabelS5_(ptr nonnull align 8 poison, ptr noundef %20, ptr noundef nonnull %10, i32 %11, i32 %12, i1 noundef zeroext true, i1 noundef zeroext %21, ptr noundef nonnull align 8 dereferenceable(33) %22, ptr noundef nonnull align 8 dereferenceable(33) %23)
  ret void
}